; ModuleID = '34/2300.c'
source_filename = "34/2300.c"
target datalayout = "e-m:e-p270:32:32-p271:32:32-p272:64:64-i64:64-f80:128-n8:16:32:64-S128"
target triple = "x86_64-pc-linux-gnu"

@.str = private unnamed_addr constant [3 x i8] c"%d\00", align 1
@.str.1 = private unnamed_addr constant [11 x i8] c"%d*3+1=%d\0A\00", align 1
@.str.2 = private unnamed_addr constant [9 x i8] c"%d/2=%d\0A\00", align 1
@.str.3 = private unnamed_addr constant [4 x i8] c"End\00", align 1

; Function Attrs: noinline nounwind uwtable
define dso_local i32 @main() #0 {
  %1 = alloca i32, align 4
  %2 = alloca i32, align 4
  %3 = alloca i32, align 4
  %4 = alloca i32, align 4
  store i32 0, i32* %1, align 4
  %5 = call i32 (i8*, ...) @__isoc99_scanf(i8* getelementptr inbounds ([3 x i8], [3 x i8]* @.str, i64 0, i64 0), i32* %2)
  br label %6

6:                                                ; preds = %33, %0
  %7 = load i32, i32* %2, align 4
  %8 = icmp sgt i32 %7, 1
  br i1 %8, label %9, label %34

9:                                                ; preds = %6
  %10 = load i32, i32* %2, align 4
  %11 = srem i32 %10, 2
  %12 = icmp eq i32 %11, 1
  br i1 %12, label %13, label %22

13:                                               ; preds = %9
  %14 = load i32, i32* %2, align 4
  %15 = load i32, i32* %2, align 4
  %16 = mul nsw i32 %15, 3
  %17 = add nsw i32 %16, 1
  %18 = call i32 (i8*, ...) @printf(i8* getelementptr inbounds ([11 x i8], [11 x i8]* @.str.1, i64 0, i64 0), i32 %14, i32 %17)
  %19 = load i32, i32* %2, align 4
  %20 = mul nsw i32 %19, 3
  %21 = add nsw i32 %20, 1
  store i32 %21, i32* %2, align 4
  br label %22

22:                                               ; preds = %13, %9
  %23 = load i32, i32* %2, align 4
  %24 = srem i32 %23, 2
  %25 = icmp eq i32 %24, 0
  br i1 %25, label %26, label %33

26:                                               ; preds = %22
  %27 = load i32, i32* %2, align 4
  %28 = load i32, i32* %2, align 4
  %29 = sdiv i32 %28, 2
  %30 = call i32 (i8*, ...) @printf(i8* getelementptr inbounds ([9 x i8], [9 x i8]* @.str.2, i64 0, i64 0), i32 %27, i32 %29)
  %31 = load i32, i32* %2, align 4
  %32 = sdiv i32 %31, 2
  store i32 %32, i32* %2, align 4
  br label %33

33:                                               ; preds = %26, %22
  br label %6

34:                                               ; preds = %6
  %35 = call i32 (i8*, ...) @printf(i8* getelementptr inbounds ([4 x i8], [4 x i8]* @.str.3, i64 0, i64 0))
  ret i32 0
}

declare dso_local i32 @__isoc99_scanf(i8*, ...) #1

declare dso_local i32 @printf(i8*, ...) #1


!llvm.module.flags = !{!0}
!llvm.ident = !{!1}

!0 = !{i32 1, !"wchar_size", i32 4}
!1 = !{!"clang version 10.0.0-4ubuntu1 "}
